target datalayout = "e-m:e-p270:32:32-p271:32:32-p272:64:64-i64:64-i128:128-f80:128-n8:16:32:64-S128"
target triple = "x86_64-pc-linux-gnu"

%struct.png_row_info_struct = type { i32, i64, i8, i8, i8, i8 }

; Function Attrs: nounwind uwtable
define internal void @png_read_filter_row_sub(ptr noundef %0, ptr noundef %1, ptr noundef %2) #0 {
  %4 = alloca ptr, align 8
  %5 = alloca ptr, align 8
  %6 = alloca ptr, align 8
  %7 = alloca i64, align 8
  %8 = alloca i64, align 8
  %9 = alloca i32, align 4
  %10 = alloca ptr, align 8
  store ptr %0, ptr %4, align 8
  store ptr %1, ptr %5, align 8
  store ptr %2, ptr %6, align 8
  %11 = load ptr, ptr %4, align 8
  %12 = getelementptr inbounds %struct.png_row_info_struct, ptr %11, i32 0, i32 1
  %13 = load i64, ptr %12, align 8
  store i64 %13, ptr %8, align 8
  %14 = load ptr, ptr %4, align 8
  %15 = getelementptr inbounds %struct.png_row_info_struct, ptr %14, i32 0, i32 5
  %16 = load i8, ptr %15, align 1
  %17 = zext i8 %16 to i32
  %18 = add nsw i32 %17, 7
  %19 = ashr i32 %18, 3
  store i32 %19, ptr %9, align 4
  %20 = load ptr, ptr %5, align 8
  %21 = load i32, ptr %9, align 4
  %22 = zext i32 %21 to i64
  %23 = getelementptr inbounds i8, ptr %20, i64 %22
  store ptr %23, ptr %10, align 8
  %24 = load i32, ptr %9, align 4
  %25 = zext i32 %24 to i64
  store i64 %25, ptr %7, align 8
  br label %26

26:                                               ; preds = %47, %3
  %27 = load i64, ptr %7, align 8
  %28 = load i64, ptr %8, align 8
  %29 = icmp ult i64 %27, %28
  br i1 %29, label %30, label %50

30:                                               ; preds = %26
  %31 = load ptr, ptr %10, align 8
  %32 = load i8, ptr %31, align 1
  %33 = zext i8 %32 to i32
  %34 = load ptr, ptr %10, align 8
  %35 = load i32, ptr %9, align 4
  %36 = zext i32 %35 to i64
  %37 = sub i64 0, %36
  %38 = getelementptr inbounds i8, ptr %34, i64 %37
  %39 = load i8, ptr %38, align 1
  %40 = zext i8 %39 to i32
  %41 = add nsw i32 %33, %40
  %42 = and i32 %41, 255
  %43 = trunc i32 %42 to i8
  %44 = load ptr, ptr %10, align 8
  store i8 %43, ptr %44, align 1
  %45 = load ptr, ptr %10, align 8
  %46 = getelementptr inbounds i8, ptr %45, i32 1
  store ptr %46, ptr %10, align 8
  br label %47

47:                                               ; preds = %30
  %48 = load i64, ptr %7, align 8
  %49 = add i64 %48, 1
  store i64 %49, ptr %7, align 8
  br label %26, !llvm.loop !37

50:                                               ; preds = %26
  ret void
}